Certificate:
    Data:
        Version: 3 (0x2)
        Serial Number: 1 (0x1)
        Signature Algorithm: sha256WithRSAEncryption
        Issuer: CN=swtpm-localca-rootca
        Validity
            Not Before: Jun 15 08:42:57 2023 GMT
            Not After : Jun 13 08:42:57 2053 GMT
        Subject: CN=swtpm-localca
        Subject Public Key Info:
            Public Key Algorithm: rsaEncryption
                Public-Key: (3072 bit)
                Modulus:
                    00:b9:a6:c6:e6:11:1a:d9:7d:5e:ef:9c:b6:67:5b:
                    2b:1d:b0:a4:de:5e:a2:ae:c9:d5:92:22:28:cc:2f:
                    b4:04:c5:19:23:ed:b2:f6:26:06:9b:5b:cc:4f:7f:
                    2e:0b:7e:84:bb:23:76:8e:3f:15:ef:c5:4b:c7:c9:
                    36:4f:78:1f:21:1c:02:99:70:84:6e:63:9c:f6:a2:
                    a9:00:e2:44:ac:2a:0d:fb:33:67:f7:57:f3:3f:7c:
                    e8:23:a6:c4:a2:3d:2d:7c:bc:77:43:3f:da:e2:63:
                    3e:67:8d:e3:a0:fd:81:de:df:e8:98:a3:b7:13:ef:
                    56:54:81:e9:19:ad:ae:59:ba:56:9c:8d:4e:38:b4:
                    f2:c3:40:64:2e:d6:a3:b7:f4:cc:8d:9e:4f:84:7d:
                    bc:62:f0:25:60:b7:76:85:d7:1f:d5:2d:4b:c3:69:
                    d8:a4:2a:c0:4f:4f:99:6f:6f:cf:2c:02:fe:67:ee:
                    94:9e:cb:25:8d:19:f5:2e:4c:8b:1b:ee:53:6d:54:
                    ca:48:2e:f5:1e:2f:d3:b2:5d:3c:c9:ef:06:a6:eb:
                    f7:be:91:d0:e4:e4:a8:db:df:ad:9d:4c:d5:42:59:
                    79:61:1d:d3:45:91:e1:7f:41:78:ff:79:c5:22:ea:
                    c7:a7:d7:89:97:bb:95:78:6c:c5:a5:62:e7:fe:2e:
                    7d:6a:56:22:44:c6:f6:31:51:d9:cc:94:dc:3c:7c:
                    3d:a3:37:a2:2b:83:bf:66:d1:40:69:5c:e3:c7:ab:
                    72:5f:2e:55:c9:40:e5:f1:89:64:63:a0:f6:20:12:
                    44:49:4e:6b:25:7b:0f:a0:fe:fe:74:cc:72:93:94:
                    10:fb:b1:91:6e:4b:18:4b:cc:78:08:62:24:87:93:
                    78:0c:cd:9d:6d:0c:3c:1e:2b:a5:95:96:48:d8:4e:
                    26:d9:8b:fb:f1:4b:1d:fc:f5:ae:8f:21:0f:7d:3a:
                    d0:94:2d:87:4f:79:83:77:f4:d5:f5:d1:69:a8:eb:
                    c9:f5:f8:70:40:b4:28:b6:78:8d
                Exponent: 65537 (0x10001)
        X509v3 extensions:
            X509v3 Subject Key Identifier: 
                F0:31:89:7B:26:63:95:2A:02:E5:90:89:86:2B:D7:55:97:90:57:50
            X509v3 Basic Constraints: critical
                CA:TRUE
            X509v3 Authority Key Identifier: 
                4A:2F:C9:46:2A:8F:42:E1:81:BD:2F:D0:A0:64:E0:5B:77:0F:BA:AF
            X509v3 Key Usage: critical
                Certificate Sign
    Signature Algorithm: sha256WithRSAEncryption
    Signature Value:
        30:16:bd:c3:58:a1:3d:9e:9f:14:6d:60:e8:1d:09:9d:a2:1d:
        d6:71:10:7c:70:fb:a1:79:bd:b6:39:ed:2e:3b:65:ef:6d:d4:
        da:69:37:99:19:ae:2e:44:4b:4a:dc:d7:63:50:fc:7f:35:bd:
        e7:e6:96:2b:06:ac:1f:6b:ce:a9:4b:e1:db:d4:33:80:73:35:
        7e:31:84:7c:e8:22:5b:82:84:5c:98:c6:0c:af:4e:40:96:e5:
        26:47:64:07:af:f6:e9:18:df:16:df:ba:c0:03:8f:fc:1c:74:
        9f:50:7a:b4:c3:e8:ed:66:b2:20:e7:5e:0c:86:88:a5:c7:19:
        b0:cd:2a:cd:b4:c7:9d:06:2c:47:99:bc:f1:98:9b:92:12:a2:
        17:09:0b:01:67:a8:75:a8:3c:1d:aa:f0:27:f3:cf:5f:2e:63:
        7c:81:6f:fc:f5:01:c7:17:1b:16:7f:06:ec:de:ae:67:e7:7c:
        28:c2:1c:67:fe:cf:bb:50:ff:00:60:fc:4c:7f:99:f7:c1:ee:
        7a:21:c7:87:69:c5:f5:e9:72:b1:0d:8b:1a:53:e9:6c:a8:eb:
        8d:98:f9:44:a8:97:ce:fd:87:55:9c:53:cb:d2:c7:1a:b0:5d:
        4c:49:9e:f3:55:87:ce:00:4f:13:17:12:85:45:c1:25:a4:bd:
        f9:2d:9f:ce:73:48:9d:f7:be:1e:ee:85:f1:96:8a:8d:44:c9:
        4c:f9:43:df:92:73:cb:fd:6c:69:3b:d7:d4:3d:27:aa:fa:b3:
        33:27:12:74:5a:5e:9c:fd:d9:c9:41:0d:8d:73:1b:40:78:47:
        aa:fa:1e:8a:72:b4:10:f8:17:7f:6c:de:9b:14:32:d4:6a:ad:
        72:b1:e4:44:52:d1:5b:af:6f:3f:b9:20:5b:f3:21:d3:c1:a2:
        15:44:89:93:0a:b0:eb:d2:8f:e7:ba:4a:b6:f3:44:19:f6:c1:
        8c:3c:c2:32:e5:cb:90:6d:b5:2e:bb:c4:20:42:7d:b8:ba:fa:
        5a:3e:c8:68:4c:42
-----BEGIN CERTIFICATE-----
MIIEFzCCAn+gAwIBAgIBATANBgkqhkiG9w0BAQsFADAfMR0wGwYDVQQDDBRzd3Rw
bS1sb2NhbGNhLXJvb3RjYTAgFw0yMzA2MTUwODQyNTdaGA8yMDUzMDYxMzA4NDI1
N1owGDEWMBQGA1UEAwwNc3d0cG0tbG9jYWxjYTCCAaIwDQYJKoZIhvcNAQEBBQAD
ggGPADCCAYoCggGBALmmxuYRGtl9Xu+ctmdbKx2wpN5eoq7J1ZIiKMwvtATFGSPt
svYmBptbzE9/Lgt+hLsjdo4/Fe/FS8fJNk94HyEcAplwhG5jnPaiqQDiRKwqDfsz
Z/dX8z986COmxKI9LXy8d0M/2uJjPmeN46D9gd7f6JijtxPvVlSB6Rmtrlm6VpyN
Tji08sNAZC7Wo7f0zI2eT4R9vGLwJWC3doXXH9UtS8Np2KQqwE9PmW9vzywC/mfu
lJ7LJY0Z9S5MixvuU21Uykgu9R4v07JdPMnvBqbr976R0OTkqNvfrZ1M1UJZeWEd
00WR4X9BeP95xSLqx6fXiZe7lXhsxaVi5/4ufWpWIkTG9jFR2cyU3Dx8PaM3oiuD
v2bRQGlc48ercl8uVclA5fGJZGOg9iASRElOayV7D6D+/nTMcpOUEPuxkW5LGEvM
eAhiJIeTeAzNnW0MPB4rpZWWSNhOJtmL+/FLHfz1ro8hD3060JQth095g3f01fXR
aajryfX4cEC0KLZ4jQIDAQABo2MwYTAdBgNVHQ4EFgQU8DGJeyZjlSoC5ZCJhivX
VZeQV1AwDwYDVR0TAQH/BAUwAwEB/zAfBgNVHSMEGDAWgBRKL8lGKo9C4YG9L9Cg
ZOBbdw+6rzAOBgNVHQ8BAf8EBAMCAgQwDQYJKoZIhvcNAQELBQADggGBADAWvcNY
oT2enxRtYOgdCZ2iHdZxEHxw+6F5vbY57S47Ze9t1NppN5kZri5ES0rc12NQ/H81
vefmlisGrB9rzqlL4dvUM4BzNX4xhHzoIluChFyYxgyvTkCW5SZHZAev9ukY3xbf
usADj/wcdJ9QerTD6O1msiDnXgyGiKXHGbDNKs20x50GLEeZvPGYm5ISohcJCwFn
qHWoPB2q8Cfzz18uY3yBb/z1AccXGxZ/BuzermfnfCjCHGf+z7tQ/wBg/Ex/mffB
7nohx4dpxfXpcrENixpT6Wyo642Y+USol879h1WcU8vSxxqwXUxJnvNVh84ATxMX
EoVFwSWkvfktn85zSJ33vh7uhfGWio1EyUz5Q9+Sc8v9bGk719Q9J6r6szMnEnRa
Xpz92clBDY1zG0B4R6r6HopytBD4F39s3psUMtRqrXKx5ERS0Vuvbz+5IFvzIdPB
ohVEiZMKsOvSj+e6SrbzRBn2wYw8wjLly5BttS67xCBCfbi6+lo+yGhMQg==
-----END CERTIFICATE-----
