Certificate:
    Data:
        Version: 3 (0x2)
        Serial Number: 1867235068 (0x6f4bbefc)
        Signature Algorithm: ecdsa-with-SHA384
        Issuer: C = DE, O = Infineon Technologies AG, OU = OPTIGA(TM) Devices, CN = Infineon OPTIGA(TM) ECC Root CA
        Validity
            Not Before: Aug 20 13:13:06 2018 GMT
            Not After : Aug 20 13:13:06 2038 GMT
        Subject: C = DE, O = Infineon Technologies AG, OU = OPTIGA(TM), CN = Infineon OPTIGA(TM) TPM 2.0 ECC CA 041
        Subject Public Key Info:
            Public Key Algorithm: id-ecPublicKey
                Public-Key: (384 bit)
                pub:
                    04:c4:a7:5a:d8:45:03:f8:ec:da:d5:5a:9d:10:c1:
                    e6:37:e3:79:2d:85:27:55:83:fa:4e:47:1f:ee:76:
                    f3:bf:36:2b:4b:2c:20:60:0c:33:41:1e:90:13:38:
                    2b:fb:1a:60:0e:55:8d:7b:a3:56:1e:74:a1:e8:e6:
                    06:2e:12:2c:c8:5e:b2:03:17:f7:24:de:75:a0:d0:
                    eb:b5:ad:82:70:84:28:65:25:e8:70:b9:f5:24:6b:
                    cb:45:ef:b0:66:2d:ea
                ASN1 OID: secp384r1
                NIST CURVE: P-384
        X509v3 extensions:
            Authority Information Access: 
                CA Issuers - URI:http://pki.infineon.com/OptigaEccRootCA/OptigaEccRootCA.crt

            X509v3 Subject Key Identifier: 
                1C:32:44:AF:F4:12:C4:53:04:C0:C8:76:09:EC:45:E7:1E:C2:56:10
            X509v3 Key Usage: critical
                Certificate Sign, CRL Sign
            X509v3 Basic Constraints: critical
                CA:TRUE, pathlen:0
            X509v3 CRL Distribution Points: 

                Full Name:
                  URI:http://pki.infineon.com/OptigaEccRootCA/OptigaEccRootCA.crl

            X509v3 Certificate Policies: 
                Policy: 1.2.276.0.68.1.20.1

            X509v3 Authority Key Identifier: 
                keyid:B4:18:85:C8:4A:4A:C5:12:7A:F2:40:39:DE:C4:F5:8B:1E:7E:4A:D1

            X509v3 Extended Key Usage: 
                2.23.133.8.1
    Signature Algorithm: ecdsa-with-SHA384
         30:65:02:30:4f:db:21:ea:6e:d1:9d:d8:f2:c5:11:f7:9e:36:
         b3:46:b6:20:43:02:02:bd:d3:43:43:d3:fc:d3:3d:41:13:7d:
         34:dd:29:02:67:1a:0d:db:42:29:0d:ea:dc:59:9c:19:02:31:
         00:f5:c1:ed:15:c6:d7:ec:9c:d3:84:3e:6c:5e:28:9b:ab:f7:
         30:a0:21:5f:a9:8f:a2:87:88:b0:b1:0c:dd:0e:10:19:e7:ec:
         34:7d:34:00:3f:ee:07:ea:25:f1:ab:91:43
-----BEGIN CERTIFICATE-----
MIIDVjCCAtygAwIBAgIEb0u+/DAKBggqhkjOPQQDAzB3MQswCQYDVQQGEwJERTEh
MB8GA1UECgwYSW5maW5lb24gVGVjaG5vbG9naWVzIEFHMRswGQYDVQQLDBJPUFRJ
R0EoVE0pIERldmljZXMxKDAmBgNVBAMMH0luZmluZW9uIE9QVElHQShUTSkgRUND
IFJvb3QgQ0EwHhcNMTgwODIwMTMxMzA2WhcNMzgwODIwMTMxMzA2WjB2MQswCQYD
VQQGEwJERTEhMB8GA1UECgwYSW5maW5lb24gVGVjaG5vbG9naWVzIEFHMRMwEQYD
VQQLDApPUFRJR0EoVE0pMS8wLQYDVQQDDCZJbmZpbmVvbiBPUFRJR0EoVE0pIFRQ
TSAyLjAgRUNDIENBIDA0MTB2MBAGByqGSM49AgEGBSuBBAAiA2IABMSnWthFA/js
2tVanRDB5jfjeS2FJ1WD+k5HH+528782K0ssIGAMM0EekBM4K/saYA5VjXujVh50
oejmBi4SLMhesgMX9yTedaDQ67WtgnCEKGUl6HC59SRry0XvsGYt6qOCATgwggE0
MFcGCCsGAQUFBwEBBEswSTBHBggrBgEFBQcwAoY7aHR0cDovL3BraS5pbmZpbmVv
bi5jb20vT3B0aWdhRWNjUm9vdENBL09wdGlnYUVjY1Jvb3RDQS5jcnQwHQYDVR0O
BBYEFBwyRK/0EsRTBMDIdgnsRecewlYQMA4GA1UdDwEB/wQEAwIABjASBgNVHRMB
Af8ECDAGAQH/AgEAMEwGA1UdHwRFMEMwQaA/oD2GO2h0dHA6Ly9wa2kuaW5maW5l
b24uY29tL09wdGlnYUVjY1Jvb3RDQS9PcHRpZ2FFY2NSb290Q0EuY3JsMBUGA1Ud
IAQOMAwwCgYIKoIUAEQBFAEwHwYDVR0jBBgwFoAUtBiFyEpKxRJ68kA53sT1ix5+
StEwEAYDVR0lBAkwBwYFZ4EFCAEwCgYIKoZIzj0EAwMDaAAwZQIwT9sh6m7Rndjy
xRH3njazRrYgQwICvdNDQ9P80z1BE3003SkCZxoN20IpDercWZwZAjEA9cHtFcbX
7JzThD5sXiibq/cwoCFfqY+ih4iwsQzdDhAZ5+w0fTQAP+4H6iXxq5FD
-----END CERTIFICATE-----
