Certificate:
    Data:
        Version: 3 (0x2)
        Serial Number: 1237716669 (0x49c60ebd)
        Signature Algorithm: sha256WithRSAEncryption
        Issuer: C = DE, O = Infineon Technologies AG, OU = OPTIGA(TM) Devices, CN = Infineon OPTIGA(TM) RSA Root CA
        Validity
            Not Before: Aug 20 12:38:44 2018 GMT
            Not After : Aug 20 12:38:44 2038 GMT
        Subject: C = DE, O = Infineon Technologies AG, OU = OPTIGA(TM), CN = Infineon OPTIGA(TM) TPM 2.0 RSA CA 041
        Subject Public Key Info:
            Public Key Algorithm: rsaEncryption
                RSA Public-Key: (4096 bit)
                Modulus:
                    00:83:f8:67:95:68:3a:51:49:aa:f6:3d:eb:a9:e6:
                    ac:14:55:e1:11:f4:29:10:bf:69:6e:84:db:e0:aa:
                    f9:a4:f4:f7:e2:52:00:ea:84:0e:0d:13:13:a1:5b:
                    4d:be:d0:fd:f9:f7:16:54:42:20:2d:0c:0b:29:7b:
                    a7:bc:b9:13:cf:95:0d:df:a8:83:a7:19:dc:4d:29:
                    a4:f5:6c:4c:48:c7:a6:52:2a:f5:09:f1:9e:b2:ae:
                    e4:3f:28:ca:7f:60:fd:51:81:a2:00:2c:9b:55:13:
                    34:de:06:dd:fe:65:e9:f4:1f:b7:75:ec:5f:cb:c7:
                    e6:4d:60:ed:07:04:54:d5:cd:13:d6:bc:83:0e:8d:
                    0c:da:fc:64:22:ce:ca:f8:39:49:af:3c:bf:a9:2a:
                    f4:28:21:35:58:e2:48:84:25:29:a2:7e:f6:ec:09:
                    3b:b4:b2:08:02:0d:94:bf:42:84:93:4d:4c:fd:a3:
                    0f:be:47:ff:a6:42:19:97:57:71:26:4d:34:d3:d6:
                    ff:00:32:63:bc:e4:67:9e:c1:16:40:5a:90:c5:5e:
                    2a:69:8c:9d:a2:56:17:4c:55:d8:19:5b:1c:58:1c:
                    9b:53:c7:31:37:36:a9:5d:f6:84:17:89:a4:0e:12:
                    79:c8:2b:fd:1c:ef:ac:2e:8c:fd:59:38:92:07:25:
                    c4:84:14:f3:ae:53:3f:4e:b0:db:14:cb:57:1f:5b:
                    13:ce:35:72:1a:3d:34:28:97:1b:cc:60:13:36:77:
                    c8:eb:90:fb:de:ca:ff:9f:8b:04:d1:ab:f2:43:9d:
                    63:11:17:92:22:f5:cb:08:c4:60:a4:03:cd:f4:90:
                    24:c8:c8:e8:0b:a7:c9:c5:2a:2d:08:24:1f:a4:f7:
                    f2:b1:1c:14:62:50:db:f1:1b:00:3f:33:8f:f1:e4:
                    32:33:f3:49:07:6a:cd:84:a5:a9:c9:8a:67:be:05:
                    06:c7:e5:ef:27:f8:1f:57:fc:ae:3f:be:36:52:0b:
                    f7:85:40:9a:3f:56:23:85:a6:9c:cc:bb:32:c8:14:
                    7d:17:da:64:df:e4:c9:3d:6c:fe:ac:0a:e5:bc:29:
                    bf:da:0b:7c:85:54:ef:cd:05:d8:58:ef:04:91:52:
                    ca:d3:d9:1a:32:ac:0d:88:82:df:02:30:d1:77:56:
                    bf:d5:4c:c2:cd:fd:10:28:88:77:c2:7a:77:e3:67:
                    69:d0:96:f8:92:d5:2c:f9:7f:02:c9:1d:26:1b:1c:
                    10:b4:1d:7e:01:76:fd:3c:88:dc:4a:92:03:fd:94:
                    c9:27:85:e4:e6:77:f3:95:4b:b1:78:85:f8:04:8d:
                    2a:3b:fc:9f:0c:21:79:0b:2a:c7:9f:ea:b1:1c:9d:
                    29:ad:79
                Exponent: 65537 (0x10001)
        X509v3 extensions:
            Authority Information Access: 
                CA Issuers - URI:http://pki.infineon.com/OptigaRsaRootCA/OptigaRsaRootCA.crt

            X509v3 Subject Key Identifier: 
                56:F6:B5:97:39:63:01:18:5B:91:D8:00:AC:EE:91:62:19:E3:A6:BB
            X509v3 Key Usage: critical
                Certificate Sign, CRL Sign
            X509v3 Basic Constraints: critical
                CA:TRUE, pathlen:0
            X509v3 CRL Distribution Points: 

                Full Name:
                  URI:http://pki.infineon.com/OptigaRsaRootCA/OptigaRsaRootCA.crl

            X509v3 Certificate Policies: 
                Policy: 1.2.276.0.68.1.20.1

            X509v3 Authority Key Identifier: 
                keyid:DC:BB:56:AB:F1:18:FC:A6:9A:75:11:10:65:84:12:9E:D5:41:92:B9

            X509v3 Extended Key Usage: 
                2.23.133.8.1
    Signature Algorithm: sha256WithRSAEncryption
         aa:3a:93:d0:7c:b8:a5:45:a9:14:f5:4b:f5:83:38:42:2b:55:
         19:26:c2:cc:0e:d9:35:68:3e:2d:44:68:05:a9:90:7d:42:c0:
         63:06:96:83:f8:bc:02:b2:04:9f:99:48:02:76:26:28:05:8f:
         dd:34:c4:43:c6:a6:9c:5e:a5:fa:15:1b:a7:f6:ff:09:8d:f0:
         5d:e6:21:43:67:ca:ed:3d:33:59:bf:68:2b:5a:a7:3d:1e:e8:
         3b:9a:06:08:a7:7f:fe:e9:b4:c8:8b:a7:34:a4:4a:be:9e:c2:
         88:90:78:c8:cc:3b:e0:aa:fe:a2:2c:6c:73:80:99:bd:3a:30:
         e6:62:9e:e4:d7:3b:9a:c7:c7:48:09:5b:da:7e:29:69:d2:b2:
         b5:ca:27:96:a5:a0:23:c3:7d:67:b3:d4:f1:9b:81:eb:ba:1e:
         75:63:db:b3:34:53:63:f4:40:b9:4a:d6:e3:57:18:3c:a9:e6:
         42:93:98:52:ef:a9:94:d9:f3:ec:6b:5e:e2:1e:92:d4:ed:57:
         ed:56:f2:b2:3c:c8:e0:a5:2c:5b:21:55:8b:b7:e5:d0:6e:75:
         59:76:a0:2f:6b:98:06:cf:11:18:ed:33:a5:4d:4a:ba:63:b5:
         63:0b:79:35:47:be:ae:3f:ae:00:5e:62:31:3a:96:78:c0:de:
         60:b3:5b:dd:aa:cd:52:8c:6e:aa:44:b8:3d:aa:66:23:bf:16:
         c3:1e:51:e0:e0:c0:d1:4e:42:f1:0e:3b:db:96:55:92:d8:58:
         b7:b4:d3:d4:fd:4e:3c:7b:76:40:dc:dd:89:4f:10:f8:c1:27:
         e2:14:eb:d6:b5:82:14:82:4c:87:55:58:19:15:f2:4e:63:f8:
         c2:a4:29:cc:54:94:9b:c3:86:56:c0:37:5e:9a:c4:17:ff:47:
         33:f9:4c:9a:c4:cf:c5:9e:f6:2e:a1:00:41:cf:23:f4:90:84:
         b0:85:fe:cd:92:ab:4a:5a:c6:cf:44:e1:6e:6a:c7:39:42:81:
         0b:ff:d5:eb:2f:29:97:7c:6b:e7:1f:ac:b3:8b:d5:ab:da:f2:
         8b:92:94:40:4b:3d:d3:a3:43:ef:af:f7:d7:30:7e:df:c8:52:
         fa:c2:6b:4f:bd:8a:19:eb:17:17:41:d3:d1:0b:9e:76:e7:8a:
         03:c4:6c:18:d0:a6:c6:da:6d:bb:f7:74:49:04:d6:d6:57:2e:
         48:58:78:0b:a5:11:ae:9b:83:e9:27:82:ea:eb:a4:98:2a:a2:
         c0:10:da:82:e0:1c:ad:cd:c5:be:ae:9a:3c:80:f9:5b:1d:5b:
         bf:97:34:ae:66:0a:1d:dd:d0:09:a5:b7:62:62:c9:ba:1a:a4:
         68:91:7d:ff:5f:d5:30:8e
-----BEGIN CERTIFICATE-----
MIIGpTCCBI2gAwIBAgIEScYOvTANBgkqhkiG9w0BAQsFADB3MQswCQYDVQQGEwJE
RTEhMB8GA1UECgwYSW5maW5lb24gVGVjaG5vbG9naWVzIEFHMRswGQYDVQQLDBJP
UFRJR0EoVE0pIERldmljZXMxKDAmBgNVBAMMH0luZmluZW9uIE9QVElHQShUTSkg
UlNBIFJvb3QgQ0EwHhcNMTgwODIwMTIzODQ0WhcNMzgwODIwMTIzODQ0WjB2MQsw
CQYDVQQGEwJERTEhMB8GA1UECgwYSW5maW5lb24gVGVjaG5vbG9naWVzIEFHMRMw
EQYDVQQLDApPUFRJR0EoVE0pMS8wLQYDVQQDDCZJbmZpbmVvbiBPUFRJR0EoVE0p
IFRQTSAyLjAgUlNBIENBIDA0MTCCAiIwDQYJKoZIhvcNAQEBBQADggIPADCCAgoC
ggIBAIP4Z5VoOlFJqvY966nmrBRV4RH0KRC/aW6E2+Cq+aT09+JSAOqEDg0TE6Fb
Tb7Q/fn3FlRCIC0MCyl7p7y5E8+VDd+og6cZ3E0ppPVsTEjHplIq9QnxnrKu5D8o
yn9g/VGBogAsm1UTNN4G3f5l6fQft3XsX8vH5k1g7QcEVNXNE9a8gw6NDNr8ZCLO
yvg5Sa88v6kq9CghNVjiSIQlKaJ+9uwJO7SyCAINlL9ChJNNTP2jD75H/6ZCGZdX
cSZNNNPW/wAyY7zkZ57BFkBakMVeKmmMnaJWF0xV2BlbHFgcm1PHMTc2qV32hBeJ
pA4Secgr/RzvrC6M/Vk4kgclxIQU865TP06w2xTLVx9bE841cho9NCiXG8xgEzZ3
yOuQ+97K/5+LBNGr8kOdYxEXkiL1ywjEYKQDzfSQJMjI6AunycUqLQgkH6T38rEc
FGJQ2/EbAD8zj/HkMjPzSQdqzYSlqcmKZ74FBsfl7yf4H1f8rj++NlIL94VAmj9W
I4WmnMy7MsgUfRfaZN/kyT1s/qwK5bwpv9oLfIVU780F2FjvBJFSytPZGjKsDYiC
3wIw0XdWv9VMws39ECiId8J6d+NnadCW+JLVLPl/AskdJhscELQdfgF2/TyI3EqS
A/2UySeF5OZ385VLsXiF+ASNKjv8nwwheQsqx5/qsRydKa15AgMBAAGjggE4MIIB
NDBXBggrBgEFBQcBAQRLMEkwRwYIKwYBBQUHMAKGO2h0dHA6Ly9wa2kuaW5maW5l
b24uY29tL09wdGlnYVJzYVJvb3RDQS9PcHRpZ2FSc2FSb290Q0EuY3J0MB0GA1Ud
DgQWBBRW9rWXOWMBGFuR2ACs7pFiGeOmuzAOBgNVHQ8BAf8EBAMCAAYwEgYDVR0T
AQH/BAgwBgEB/wIBADBMBgNVHR8ERTBDMEGgP6A9hjtodHRwOi8vcGtpLmluZmlu
ZW9uLmNvbS9PcHRpZ2FSc2FSb290Q0EvT3B0aWdhUnNhUm9vdENBLmNybDAVBgNV
HSAEDjAMMAoGCCqCFABEARQBMB8GA1UdIwQYMBaAFNy7VqvxGPymmnUREGWEEp7V
QZK5MBAGA1UdJQQJMAcGBWeBBQgBMA0GCSqGSIb3DQEBCwUAA4ICAQCqOpPQfLil
RakU9Uv1gzhCK1UZJsLMDtk1aD4tRGgFqZB9QsBjBpaD+LwCsgSfmUgCdiYoBY/d
NMRDxqacXqX6FRun9v8JjfBd5iFDZ8rtPTNZv2grWqc9Hug7mgYIp3/+6bTIi6c0
pEq+nsKIkHjIzDvgqv6iLGxzgJm9OjDmYp7k1zuax8dICVvafilp0rK1yieWpaAj
w31ns9Txm4Hruh51Y9uzNFNj9EC5StbjVxg8qeZCk5hS76mU2fPsa17iHpLU7Vft
VvKyPMjgpSxbIVWLt+XQbnVZdqAva5gGzxEY7TOlTUq6Y7VjC3k1R76uP64AXmIx
OpZ4wN5gs1vdqs1SjG6qRLg9qmYjvxbDHlHg4MDRTkLxDjvbllWS2Fi3tNPU/U48
e3ZA3N2JTxD4wSfiFOvWtYIUgkyHVVgZFfJOY/jCpCnMVJSbw4ZWwDdemsQX/0cz
+UyaxM/FnvYuoQBBzyP0kISwhf7NkqtKWsbPROFuasc5QoEL/9XrLymXfGvnH6yz
i9Wr2vKLkpRASz3To0Pvr/fXMH7fyFL6wmtPvYoZ6xcXQdPRC55254oDxGwY0KbG
2m2793RJBNbWVy5IWHgLpRGum4PpJ4Lq66SYKqLAENqC4BytzcW+rpo8gPlbHVu/
lzSuZgod3dAJpbdiYsm6GqRokX3/X9Uwjg==
-----END CERTIFICATE-----
